target datalayout = "e-m:e-p270:32:32-p271:32:32-p272:64:64-i64:64-i128:128-f80:128-n8:16:32:64-S128"
target triple = "x86_64-pc-linux-gnu"

%struct.tng_trajectory = type { ptr, ptr, i64, ptr, ptr, ptr, ptr, ptr, ptr, i8, i8, ptr, ptr, ptr, ptr, ptr, ptr, ptr, ptr, ptr, i64, i64, i8, i64, i64, i64, double, i64, ptr, ptr, i64, i64, i64, i64, i64, %struct.tng_trajectory_frame_set, i64, i64, i64, i32, ptr, i32, ptr, ptr, ptr, double }
%struct.tng_trajectory_frame_set = type { i64, ptr, i64, i64, i64, i64, ptr, i64, i64, i64, i64, i64, i64, i64, double, i32, ptr, i32, ptr }
%struct.tng_molecule = type { i64, i64, i64, i64, i64, i64, ptr, ptr, ptr, ptr, ptr }

; Function Attrs: nounwind uwtable
define i32 @tng_molecule_find(ptr noundef %0, ptr noundef %1, i64 noundef %2, ptr noundef %3) #0 {
  %5 = alloca i32, align 4
  %6 = alloca ptr, align 8
  %7 = alloca ptr, align 8
  %8 = alloca i64, align 8
  %9 = alloca ptr, align 8
  %10 = alloca i64, align 8
  %11 = alloca i64, align 8
  %12 = alloca i32, align 4
  store ptr %0, ptr %6, align 8, !tbaa !3
  store ptr %1, ptr %7, align 8, !tbaa !19
  store i64 %2, ptr %8, align 8, !tbaa !26
  store ptr %3, ptr %9, align 8, !tbaa !30
  call void @llvm.lifetime.start.p0(i64 8, ptr %10) #11
  call void @llvm.lifetime.start.p0(i64 8, ptr %11) #11
  %13 = load ptr, ptr %6, align 8, !tbaa !3
  %14 = getelementptr inbounds nuw %struct.tng_trajectory, ptr %13, i32 0, i32 27
  %15 = load i64, ptr %14, align 8, !tbaa !32
  store i64 %15, ptr %11, align 8, !tbaa !26
  %16 = load i64, ptr %11, align 8, !tbaa !26
  %17 = sub nsw i64 %16, 1
  store i64 %17, ptr %10, align 8, !tbaa !26
  br label %18

18:                                               ; preds = %54, %4
  %19 = load i64, ptr %10, align 8, !tbaa !26
  %20 = icmp sge i64 %19, 0
  br i1 %20, label %21, label %57

21:                                               ; preds = %18
  %22 = load ptr, ptr %6, align 8, !tbaa !3
  %23 = getelementptr inbounds nuw %struct.tng_trajectory, ptr %22, i32 0, i32 28
  %24 = load ptr, ptr %23, align 8, !tbaa !40
  %25 = load i64, ptr %10, align 8, !tbaa !26
  %26 = getelementptr inbounds %struct.tng_molecule, ptr %24, i64 %25
  %27 = load ptr, ptr %9, align 8, !tbaa !30
  store ptr %26, ptr %27, align 8, !tbaa !45
  %28 = load ptr, ptr %7, align 8, !tbaa !19
  %29 = getelementptr inbounds i8, ptr %28, i64 0
  %30 = load i8, ptr %29, align 1, !tbaa !23
  %31 = sext i8 %30 to i32
  %32 = icmp eq i32 %31, 0
  br i1 %32, label %41, label %33

33:                                               ; preds = %21
  %34 = load ptr, ptr %7, align 8, !tbaa !19
  %35 = load ptr, ptr %9, align 8, !tbaa !30
  %36 = load ptr, ptr %35, align 8, !tbaa !45
  %37 = getelementptr inbounds nuw %struct.tng_molecule, ptr %36, i32 0, i32 6
  %38 = load ptr, ptr %37, align 8, !tbaa !49
  %39 = call i32 @strcmp(ptr noundef %34, ptr noundef %38) #12
  %40 = icmp eq i32 %39, 0
  br i1 %40, label %41, label %53

41:                                               ; preds = %33, %21
  %42 = load i64, ptr %8, align 8, !tbaa !26
  %43 = icmp eq i64 %42, -1
  br i1 %43, label %51, label %44

44:                                               ; preds = %41
  %45 = load i64, ptr %8, align 8, !tbaa !26
  %46 = load ptr, ptr %9, align 8, !tbaa !30
  %47 = load ptr, ptr %46, align 8, !tbaa !45
  %48 = getelementptr inbounds nuw %struct.tng_molecule, ptr %47, i32 0, i32 0
  %49 = load i64, ptr %48, align 8, !tbaa !41
  %50 = icmp eq i64 %45, %49
  br i1 %50, label %51, label %52

51:                                               ; preds = %44, %41
  store i32 0, ptr %5, align 4
  store i32 1, ptr %12, align 4
  br label %59

52:                                               ; preds = %44
  br label %53

53:                                               ; preds = %52, %33
  br label %54

54:                                               ; preds = %53
  %55 = load i64, ptr %10, align 8, !tbaa !26
  %56 = add nsw i64 %55, -1
  store i64 %56, ptr %10, align 8, !tbaa !26
  br label %18, !llvm.loop !68

57:                                               ; preds = %18
  %58 = load ptr, ptr %9, align 8, !tbaa !30
  store ptr null, ptr %58, align 8, !tbaa !45
  store i32 1, ptr %5, align 4
  store i32 1, ptr %12, align 4
  br label %59

59:                                               ; preds = %57, %51
  call void @llvm.lifetime.end.p0(i64 8, ptr %11) #11
  call void @llvm.lifetime.end.p0(i64 8, ptr %10) #11
  %60 = load i32, ptr %5, align 4
  ret i32 %60
}