; Function Attrs: nofree nounwind memory(read, argmem: readwrite, inaccessiblemem: none) uwtable
define range(i32 0, 2) i32 @tng_molecule_find(ptr noundef readonly captures(none) %0, ptr noundef readonly captures(none) %1, i64 noundef %2, ptr noundef writeonly captures(none) initializes((0, 8)) %3) local_unnamed_addr #14 {
  %5 = getelementptr inbounds nuw i8, ptr %0, i64 208
  %6 = load i64, ptr %5, align 8, !tbaa !19
  %7 = icmp sgt i64 %6, 0
  br i1 %7, label %.lr.ph, label %._crit_edge

.lr.ph:                                           ; preds = %4
  %.01416 = add nsw i64 %6, -1
  %8 = getelementptr inbounds nuw i8, ptr %0, i64 216
  %9 = icmp eq i64 %2, -1
  br i1 %9, label %.lr.ph.split.us, label %.lr.ph.split

.lr.ph.split.us:                                  ; preds = %.lr.ph, %19
  %.01417.us = phi i64 [ %.014.us, %19 ], [ %.01416, %.lr.ph ]
  %10 = load ptr, ptr %8, align 8, !tbaa !28
  %11 = getelementptr inbounds nuw %struct.tng_molecule, ptr %10, i64 %.01417.us
  store ptr %11, ptr %3, align 8, !tbaa !35
  %12 = load i8, ptr %1, align 1, !tbaa !13
  %13 = icmp eq i8 %12, 0
  br i1 %13, label %.loopexit, label %14

14:                                               ; preds = %.lr.ph.split.us
  %15 = getelementptr inbounds nuw i8, ptr %11, i64 48
  %16 = load ptr, ptr %15, align 8, !tbaa !37
  %17 = tail call i32 @strcmp(ptr noundef nonnull dereferenceable(1) %1, ptr noundef nonnull dereferenceable(1) %16) #27
  %18 = icmp eq i32 %17, 0
  br i1 %18, label %.loopexit, label %19

19:                                               ; preds = %14
  %.014.us = add nsw i64 %.01417.us, -1
  %20 = icmp sgt i64 %.01417.us, 0
  br i1 %20, label %.lr.ph.split.us, label %._crit_edge, !llvm.loop !52

.lr.ph.split:                                     ; preds = %.lr.ph, %33
  %.01417 = phi i64 [ %.014, %33 ], [ %.01416, %.lr.ph ]
  %21 = load ptr, ptr %8, align 8, !tbaa !28
  %22 = getelementptr inbounds nuw %struct.tng_molecule, ptr %21, i64 %.01417
  store ptr %22, ptr %3, align 8, !tbaa !35
  %23 = load i8, ptr %1, align 1, !tbaa !13
  %24 = icmp eq i8 %23, 0
  br i1 %24, label %30, label %25

25:                                               ; preds = %.lr.ph.split
  %26 = getelementptr inbounds nuw i8, ptr %22, i64 48
  %27 = load ptr, ptr %26, align 8, !tbaa !37
  %28 = tail call i32 @strcmp(ptr noundef nonnull dereferenceable(1) %1, ptr noundef nonnull dereferenceable(1) %27) #27
  %29 = icmp eq i32 %28, 0
  br i1 %29, label %30, label %33

30:                                               ; preds = %25, %.lr.ph.split
  %31 = load i64, ptr %22, align 8, !tbaa !29
  %32 = icmp eq i64 %2, %31
  br i1 %32, label %.loopexit, label %33

33:                                               ; preds = %25, %30
  %.014 = add nsw i64 %.01417, -1
  %34 = icmp sgt i64 %.01417, 0
  br i1 %34, label %.lr.ph.split, label %._crit_edge, !llvm.loop !52

._crit_edge:                                      ; preds = %33, %19, %4
  store ptr null, ptr %3, align 8, !tbaa !35
  br label %.loopexit

.loopexit:                                        ; preds = %30, %.lr.ph.split.us, %14, %._crit_edge
  %.0 = phi i32 [ 1, %._crit_edge ], [ 0, %14 ], [ 0, %.lr.ph.split.us ], [ 0, %30 ]
  ret i32 %.0
}